; Function Attrs: mustprogress uwtable
define void @_ZN4YAMLntERKNS_5RegExE(ptr dead_on_unwind noalias writable sret(%"class.YAML::RegEx") align 8 %0, ptr noundef nonnull align 8 dereferenceable(32) %1) local_unnamed_addr #2 personality ptr @__gxx_personality_v0 {
  tail call void @_ZN4YAML5RegExC1ENS_8REGEX_OPE(ptr noundef nonnull align 8 dereferenceable(32) %0, i32 noundef 5)
  %3 = getelementptr inbounds nuw i8, ptr %0, i64 8
  %4 = getelementptr inbounds nuw i8, ptr %0, i64 16
  %5 = load ptr, ptr %4, align 8, !tbaa !23
  %6 = getelementptr inbounds nuw i8, ptr %0, i64 24
  %7 = load ptr, ptr %6, align 8, !tbaa !24
  %.not.i = icmp eq ptr %5, %7
  br i1 %.not.i, label %13, label %8

8:                                                ; preds = %2
  tail call void @llvm.memcpy.p0.p0.i64(ptr noundef nonnull align 8 dereferenceable(32) %5, ptr noundef nonnull align 8 dereferenceable(32) %1, i64 6, i1 false)
  %9 = getelementptr inbounds nuw i8, ptr %5, i64 8
  %10 = getelementptr inbounds nuw i8, ptr %1, i64 8
  invoke void @_ZNSt6vectorIN4YAML5RegExESaIS1_EEC2ERKS3_(ptr noundef nonnull align 8 dereferenceable(24) %9, ptr noundef nonnull align 8 dereferenceable(24) %10)
          to label %.noexc unwind label %14

.noexc:                                           ; preds = %8
  %11 = load ptr, ptr %4, align 8, !tbaa !23
  %12 = getelementptr inbounds nuw i8, ptr %11, i64 32
  store ptr %12, ptr %4, align 8, !tbaa !23
  br label %_ZNSt6vectorIN4YAML5RegExESaIS1_EE9push_backERKS1_.exit

13:                                               ; preds = %2
  invoke void @_ZNSt6vectorIN4YAML5RegExESaIS1_EE17_M_realloc_insertIJRKS1_EEEvN9__gnu_cxx17__normal_iteratorIPS1_S3_EEDpOT_(ptr noundef nonnull align 8 dereferenceable(24) %3, ptr %5, ptr noundef nonnull align 8 dereferenceable(32) %1)
          to label %_ZNSt6vectorIN4YAML5RegExESaIS1_EE9push_backERKS1_.exit unwind label %14

14:                                               ; preds = %13, %8
  %15 = landingpad { ptr, i32 }
          cleanup
  tail call void @_ZNSt6vectorIN4YAML5RegExESaIS1_EED2Ev(ptr noundef nonnull align 8 dereferenceable(24) %3) #13
  resume { ptr, i32 } %15

_ZNSt6vectorIN4YAML5RegExESaIS1_EE9push_backERKS1_.exit: ; preds = %.noexc, %13
  ret void
}